; Function Attrs: mustprogress nounwind uwtable
define noundef nonnull ptr @glslang_program_create() local_unnamed_addr #0 {
  %1 = tail call noalias noundef nonnull dereferenceable(64) ptr @_Znwm(i64 noundef 64) #16
  %2 = getelementptr inbounds i8, ptr %1, i64 32
  tail call void @llvm.memset.p0.i64(ptr noundef nonnull align 16 dereferenceable(64) %1, i8 0, i64 64, i1 false)
  tail call void @_ZNSt7__cxx1112basic_stringIcSt11char_traitsIcESaIcEEC1Ev(ptr noundef nonnull align 8 dereferenceable(32) %2) #15
  %3 = tail call noalias noundef nonnull dereferenceable(504) ptr @_Znwm(i64 noundef 504) #16
  tail call void @_ZN7glslang8TProgramC1Ev(ptr noundef nonnull align 8 dereferenceable(497) %3) #15
  store ptr %3, ptr %1, align 8
  ret ptr %1
}